target datalayout = "e-m:e-p270:32:32-p271:32:32-p272:64:64-i64:64-i128:128-f80:128-n8:16:32:64-S128"
target triple = "x86_64-pc-linux-gnu"

%"class.std::__1::thread" = type { i64 }

@.str.1 = private unnamed_addr constant [22 x i8] c"thread::detach failed\00", align 1

; Function Attrs: inlinehint mustprogress nounwind uwtable
define linkonce_odr hidden noundef i64 @_ZNSt3__122__libcpp_thread_get_idB8ne210000EPKm(ptr noundef %0) #6 comdat {
  %2 = alloca ptr, align 8
  store ptr %0, ptr %2, align 8, !tbaa !10
  %3 = load ptr, ptr %2, align 8, !tbaa !10
  %4 = load i64, ptr %3, align 8, !tbaa !17
  ret i64 %4
}

; Function Attrs: inlinehint mustprogress nounwind uwtable
define linkonce_odr hidden noundef i32 @_ZNSt3__122__libcpp_thread_detachB8ne210000EPm(ptr noundef %0) #6 comdat {
  %2 = alloca ptr, align 8
  store ptr %0, ptr %2, align 8, !tbaa !10
  %3 = load ptr, ptr %2, align 8, !tbaa !10
  %4 = load i64, ptr %3, align 8, !tbaa !17
  %5 = call i32 @pthread_detach(i64 noundef %4) #8
  ret i32 %5
}

; Function Attrs: inlinehint mustprogress uwtable
define linkonce_odr hidden noundef zeroext i1 @_ZNSt3__122__libcpp_thread_isnullB8ne210000EPKm(ptr noundef %0) #1 comdat {
  %2 = alloca ptr, align 8
  store ptr %0, ptr %2, align 8, !tbaa !10
  %3 = load ptr, ptr %2, align 8, !tbaa !10
  %4 = call noundef i64 @_ZNSt3__122__libcpp_thread_get_idB8ne210000EPKm(ptr noundef %3)
  %5 = icmp eq i64 %4, 0
  ret i1 %5
}

; Function Attrs: mustprogress uwtable
define dso_local void @_ZNSt3__16thread6detachEv(ptr noundef nonnull align 8 dereferenceable(8) %0) #3 align 2 {
  %2 = alloca ptr, align 8
  %3 = alloca i32, align 4
  store ptr %0, ptr %2, align 8, !tbaa !5
  %4 = load ptr, ptr %2, align 8
  call void @llvm.lifetime.start.p0(i64 4, ptr %3) #8
  store i32 22, ptr %3, align 4, !tbaa !12
  %5 = getelementptr inbounds nuw %"class.std::__1::thread", ptr %4, i32 0, i32 0
  %6 = call noundef zeroext i1 @_ZNSt3__122__libcpp_thread_isnullB8ne210000EPKm(ptr noundef %5)
  br i1 %6, label %15, label %7

7:                                                ; preds = %1
  %8 = getelementptr inbounds nuw %"class.std::__1::thread", ptr %4, i32 0, i32 0
  %9 = call noundef i32 @_ZNSt3__122__libcpp_thread_detachB8ne210000EPm(ptr noundef %8)
  store i32 %9, ptr %3, align 4, !tbaa !12
  %10 = load i32, ptr %3, align 4, !tbaa !12
  %11 = icmp eq i32 %10, 0
  br i1 %11, label %12, label %14

12:                                               ; preds = %7
  %13 = getelementptr inbounds nuw %"class.std::__1::thread", ptr %4, i32 0, i32 0
  store i64 0, ptr %13, align 8, !tbaa !14
  br label %14

14:                                               ; preds = %12, %7
  br label %15

15:                                               ; preds = %14, %1
  %16 = load i32, ptr %3, align 4, !tbaa !12
  %17 = icmp ne i32 %16, 0
  br i1 %17, label %18, label %20

18:                                               ; preds = %15
  %19 = load i32, ptr %3, align 4, !tbaa !12
  call void @_ZNSt3__120__throw_system_errorEiPKc(i32 noundef %19, ptr noundef @.str.1) #18
  unreachable

20:                                               ; preds = %15
  call void @llvm.lifetime.end.p0(i64 4, ptr %3) #8
  ret void
}