; Function Attrs: mustprogress uwtable
define dso_local void @_ZNSt3__16thread6detachEv(ptr noundef nonnull align 8 captures(none) dereferenceable(8) %0) local_unnamed_addr #3 align 2 {
  %2 = load i64, ptr %0, align 8, !tbaa !5
  %3 = icmp eq i64 %2, 0
  br i1 %3, label %7, label %4

4:                                                ; preds = %1
  %5 = tail call noundef i32 @pthread_detach(i64 noundef %2) #21
  %6 = icmp eq i32 %5, 0
  br i1 %6, label %8, label %7

7:                                                ; preds = %1, %4
  %.0.ph = phi i32 [ %5, %4 ], [ 22, %1 ]
  tail call void @_ZNSt3__120__throw_system_errorEiPKc(i32 noundef %.0.ph, ptr noundef nonnull @.str.1) #22
  unreachable

8:                                                ; preds = %4
  store i64 0, ptr %0, align 8, !tbaa !9
  ret void
}